(dp0
S'6ace8ffe7737328c697c4a0f3e88667ddb47a4bf'
p1
(dp2
Voutput
p3
VLexical error.  Cannot tokenize "at pos 7. Context: .b"\u000a
p4
sVvalue
p5
NssS'4714482726295da0e3bf205274a77a6427d3da61'
p6
(dp7
Voutput
p8
VLexical error.  Cannot tokenize "at pos 1. Context: .b"\u000a
p9
sVvalue
p10
NssS'2d783df1347b735e608c7fdc6684ffa6cee2bb29'
p11
(dp12
Voutput
p13
Vsyntax error in the input\u000aLikely error position (characters from the start of file): 0\u000aInput starting at this character: yieldx\u000a
p14
sVvalue
p15
NssS'3834aef83da54153e02974e5ace8b033615a54ff'
p16
(dp17
Voutput
p18
Vsyntax error in the input\u000aLikely error position (characters from the start of file): 1\u000aInput starting at this character: x\u000a
p19
sVvalue
p20
NssS'924f6f229ae315464e096d7a9a428d405b0d0871'
p21
(dp22
Voutput
p23
Vsyntax error in the input\u000aLikely error position (characters from the start of file): 1\u000aInput starting at this character: a\u000a
p24
sVvalue
p25
NssS'12ec3b35a7f7c9226d6b791a5a6c7b87c1ebfe03'
p26
(dp27
Voutput
p28
Vsyntax error in the input\u000aLikely error position (characters from the start of file): 0\u000aInput starting at this character: {a=1,b=2}\u000a
p29
sVvalue
p30
Nss.