(dp0
S'35e9e958ea7c21fe0e78c7608105476ba91adee1'
p1
(lp2
(S'fdef'
p3
S'fib'
p4
(lp5
S'n'
p6
a(lp7
(S'if'
p8
(S'<='
p9
(S'var'
p10
g6
tp11
(S'int-lit'
p12
I1
tp13
tp14
(lp15
(S'exp'
p16
(g10
g6
tp17
tp18
a(lp19
(g16
(S'*'
p20
(g10
g6
tp21
(S'call'
p22
(g10
g4
tp23
(lp24
(S'-'
p25
(g10
g6
tp26
(S'int-lit'
p27
I1
tp28
tp29
atp30
tp31
tp32
atp33
atp34
a(S'print'
p35
(g22
(g10
g4
tp36
(lp37
(S'int-lit'
p38
I4
tp39
atp40
tp41
asS'7275fca8421937907e3a7602c622e9944201227e'
p42
(lp43
(S'if'
p44
(S'lambda'
p45
(lp46
(lp47
tp48
(lp49
(S'print'
p50
(S'int-lit'
p51
I1
tp52
tp53
a(lp54
(g50
(S'int-lit'
p55
I2
tp56
tp57
atp58
a(S'asgn'
p59
S'y'
p60
(g45
(lp61
(lp62
tp63
tp64
a(g50
(S'var'
p65
g60
tp66
tp67
asS'4a4110e4beeb58b6d4bdba74635d38028736e914'
p68
(lp69
(S'def'
p70
S'true'
p71
(S'int-lit'
p72
I1
tp73
tp74
a(g70
S'false'
p75
(S'int-lit'
p76
I0
tp77
tp78
a(S'fdef'
p79
S'isEven'
p80
(lp81
S'a'
p82
a(lp83
(S'if'
p84
(S'=='
p85
(S'var'
p86
g82
tp87
(S'int-lit'
p88
I0
tp89
tp90
(lp91
(S'exp'
p92
(g86
g71
tp93
tp94
a(lp95
(g92
(S'call'
p96
(g86
S'isOdd'
p97
tp98
(lp99
(S'-'
p100
(g86
g82
tp101
(S'int-lit'
p102
I1
tp103
tp104
atp105
tp106
atp107
atp108
a(g79
g97
(lp109
S'b'
p110
a(lp111
(g84
(S'=='
p112
(g86
g110
tp113
(S'int-lit'
p114
I0
tp115
tp116
(lp117
(g92
(g86
g75
tp118
tp119
a(lp120
(g92
(g96
(g86
g80
tp121
(lp122
(g100
(g86
g110
tp123
(S'int-lit'
p124
I1
tp125
tp126
atp127
tp128
atp129
atp130
a(S'print'
p131
(g96
(g86
g80
tp132
(lp133
(S'int-lit'
p134
I10
tp135
atp136
tp137
asS'87908aefa32fd61fdccd91a81622f06a3285c0fd'
p138
(lp139
(S'fdef'
p140
S'f'
p141
(lp142
(lp143
(g140
g141
(lp144
(lp145
(S'def'
p146
g141
(S'int-lit'
p147
I1
tp148
tp149
a(S'exp'
p150
(S'var'
p151
g141
tp152
tp153
atp154
a(g150
(S'call'
p155
(g151
g141
tp156
(lp157
tp158
tp159
atp160
a(S'print'
p161
(g155
(g151
g141
tp162
(lp163
tp164
tp165
asS'be72b60b51dbeaf62cfb5feb679f21949d5c94d2'
p166
(lp167
(S'fdef'
p168
S'f'
p169
(lp170
(lp171
(S'def'
p172
S'x'
p173
(S'int-lit'
p174
I1
tp175
tp176
a(S'exp'
p177
(S'lambda'
p178
(lp179
(lp180
(g177
(S'+'
p181
(S'var'
p182
g173
tp183
(S'int-lit'
p184
I1
tp185
tp186
tp187
atp188
tp189
atp190
a(g172
g173
(S'int-lit'
p191
I0
tp192
tp193
a(S'print'
p194
(S'call'
p195
(g195
(g182
g169
tp196
(lp197
tp198
(lp199
tp200
tp201
asS'4ca9258e0ce7dcd3c3c6cea9a5163c4e5f3b1032'
p202
(lp203
(S'fdef'
p204
S'iter'
p205
(lp206
(lp207
(S'def'
p208
S'i'
p209
(S'int-lit'
p210
I0
tp211
tp212
a(S'exp'
p213
(S'lambda'
p214
(lp215
(lp216
(S'if'
p217
(S'<'
p218
(S'var'
p219
g209
tp220
(S'int-lit'
p221
I10
tp222
tp223
(lp224
(S'asgn'
p225
g209
(S'+'
p226
(g219
g209
tp227
(S'int-lit'
p228
I1
tp229
tp230
tp231
a(g213
(g219
g209
tp232
tp233
a(lp234
(g213
(S'null'
p235
tp236
tp237
atp238
atp239
tp240
atp241
a(S'for'
p242
S'x'
p243
(S'call'
p244
(g219
g205
tp245
(lp246
tp247
(lp248
(S'print'
p249
(g219
g243
tp250
tp251
atp252
asS'edbd45f272d3c4500edd90cc75197836290600b3'
p253
(lp254
(S'fdef'
p255
S'f'
p256
(lp257
S'a'
p258
a(lp259
(S'while'
p260
(S'<'
p261
(S'var'
p262
g258
tp263
(S'int-lit'
p264
I10
tp265
tp266
(lp267
(S'asgn'
p268
g258
(S'+'
p269
(g262
g258
tp270
(S'int-lit'
p271
I1
tp272
tp273
tp274
a(S'exp'
p275
(g262
g258
tp276
tp277
atp278
atp279
a(S'print'
p280
(S'call'
p281
(g262
g256
tp282
(lp283
(S'int-lit'
p284
I3
tp285
atp286
tp287
asS'4f92d733dbef521f73a48692a6923b5fda2a6df0'
p288
(lp289
(S'fdef'
p290
S'f'
p291
(lp292
(lp293
(S'def'
p294
S'x'
p295
(S'int-lit'
p296
I1
tp297
tp298
a(S'exp'
p299
(S'lambda'
p300
(lp301
(lp302
(g299
(S'+'
p303
(S'var'
p304
g295
tp305
(S'int-lit'
p306
I1
tp307
tp308
tp309
atp310
tp311
atp312
a(g294
g295
(S'int-lit'
p313
I0
tp314
tp315
a(S'print'
p316
(S'call'
p317
(g317
(g304
g291
tp318
(lp319
tp320
(lp321
tp322
tp323
asS'6b4b14551ed5e30f7b375ba23fc507bddfc4e30f'
p324
(lp325
(S'print'
p326
(S'null'
p327
tp328
tp329
a(S'error'
p330
(S'int-lit'
p331
I0
tp332
tp333
a(g326
(S'int-lit'
p334
I1
tp335
tp336
a(g326
(S'int-lit'
p337
I1
tp338
tp339
asS'fda896f139e4a04edf97d8a288a96256cbc18c53'
p340
(lp341
(S'def'
p342
S'x'
p343
(S'int-lit'
p344
I50
tp345
tp346
a(g342
S'y'
p347
(S'int-lit'
p348
I100
tp349
tp350
a(S'fdef'
p351
S'f'
p352
(lp353
g343
a(lp354
(S'asgn'
p355
g343
(S'+'
p356
(S'var'
p357
g343
tp358
(S'int-lit'
p359
I100
tp360
tp361
tp362
a(S'exp'
p363
(g357
g343
tp364
tp365
atp366
a(S'print'
p367
(S'call'
p368
(g357
g352
tp369
(lp370
(g357
g343
tp371
atp372
tp373
a(g367
(g368
(g357
g352
tp374
(lp375
(g357
g347
tp376
atp377
tp378
a(g367
(g357
g343
tp379
tp380
asS'767ae772cb8ff7bfacd2e57e56c5098a2053f749'
p381
(lp382
(S'fdef'
p383
S'range'
p384
(lp385
S'start'
p386
aS'end'
p387
aS'distance'
p388
a(lp389
(S'def'
p390
S'i'
p391
(S'var'
p392
g386
tp393
tp394
a(S'exp'
p395
(S'lambda'
p396
(lp397
(lp398
(S'if'
p399
(S'<'
p400
(g392
g391
tp401
(g392
g387
tp402
tp403
(lp404
(S'asgn'
p405
g391
(S'+'
p406
(g392
g391
tp407
(g392
g388
tp408
tp409
tp410
a(g395
(g392
g391
tp411
tp412
a(lp413
(g395
(S'null'
p414
tp415
tp416
atp417
atp418
tp419
atp420
a(S'for'
p421
S'x'
p422
(S'call'
p423
(g392
g384
tp424
(lp425
(S'int-lit'
p426
I0
tp427
a(S'int-lit'
p428
I10
tp429
a(S'int-lit'
p430
I2
tp431
atp432
(lp433
(S'print'
p434
(g392
g422
tp435
tp436
atp437
asS'3f252c1dc2f26579f5348d35b2e430e9e18036d9'
p438
(lp439
(S'print'
p440
(S'/'
p441
(S'int-lit'
p442
I1
tp443
(S'int-lit'
p444
I0
tp445
tp446
tp447
asS'00bf059a959ef47fe39f918d9e4b65d909d58777'
p448
(lp449
(S'def'
p450
S'i'
p451
(S'int-lit'
p452
I0
tp453
tp454
a(g450
S'maxCount'
p455
(S'int-lit'
p456
I5
tp457
tp458
a(S'while'
p459
(S'<'
p460
(S'var'
p461
g451
tp462
(g461
g455
tp463
tp464
(lp465
(S'asgn'
p466
g451
(S'+'
p467
(g461
g451
tp468
(S'int-lit'
p469
I1
tp470
tp471
tp472
a(g450
S'j'
p473
(S'int-lit'
p474
I0
tp475
tp476
a(g459
(g460
(g461
g473
tp477
(g467
(g461
g451
tp478
(S'int-lit'
p479
I1
tp480
tp481
tp482
(lp483
(S'print'
p484
(g461
g473
tp485
tp486
a(g466
g473
(g467
(g461
g473
tp487
(S'int-lit'
p488
I1
tp489
tp490
tp491
atp492
atp493
asS'113176de65dc6e45f1cab2dd35b25ee15f84a626'
p494
(lp495
(S'fdef'
p496
S'iter'
p497
(lp498
S'i'
p499
a(lp500
(S'def'
p501
S'n'
p502
(S'int-lit'
p503
I0
tp504
tp505
a(S'exp'
p506
(S'lambda'
p507
(lp508
(lp509
(S'if'
p510
(S'<'
p511
(S'var'
p512
g502
tp513
(g512
g499
tp514
tp515
(lp516
(S'asgn'
p517
g502
(S'+'
p518
(g512
g502
tp519
(S'int-lit'
p520
I1
tp521
tp522
tp523
a(g506
(g512
g502
tp524
tp525
a(lp526
(g506
(S'null'
p527
tp528
tp529
atp530
atp531
tp532
atp533
a(g501
S'z'
p534
(S'int-lit'
p535
I0
tp536
tp537
a(S'for'
p538
S'x'
p539
(S'call'
p540
(g512
g497
tp541
(lp542
(S'int-lit'
p543
I10
tp544
atp545
(lp546
(g538
S'y'
p547
(g540
(g512
g497
tp548
(lp549
(S'int-lit'
p550
I10
tp551
atp552
(lp553
(g517
g534
(g518
(g512
g534
tp554
(S'int-lit'
p555
I1
tp556
tp557
tp558
atp559
atp560
a(S'print'
p561
(g512
g534
tp562
tp563
asS'c8514d7dd0957beb4db3d66c0103e860d026d522'
p564
(lp565
(S'fdef'
p566
S'Ackermann'
p567
(lp568
S'x'
p569
aS'y'
p570
a(lp571
(S'if'
p572
(S'=='
p573
(S'var'
p574
g569
tp575
(S'int-lit'
p576
I0
tp577
tp578
(lp579
(S'exp'
p580
(S'+'
p581
(g574
g570
tp582
(S'int-lit'
p583
I1
tp584
tp585
tp586
a(lp587
(g572
(S'=='
p588
(g574
g570
tp589
(S'int-lit'
p590
I0
tp591
tp592
(lp593
(g580
(S'call'
p594
(g574
g567
tp595
(lp596
(S'-'
p597
(g574
g569
tp598
(S'int-lit'
p599
I1
tp600
tp601
a(S'int-lit'
p602
I1
tp603
atp604
tp605
a(lp606
(g580
(g594
(g574
g567
tp607
(lp608
(g597
(g574
g569
tp609
(S'int-lit'
p610
I1
tp611
tp612
a(g594
(g574
g567
tp613
(lp614
(g574
g569
tp615
a(g597
(g574
g570
tp616
(S'int-lit'
p617
I1
tp618
tp619
atp620
atp621
tp622
atp623
atp624
atp625
a(S'print'
p626
(g594
(g574
g567
tp627
(lp628
(S'int-lit'
p629
I2
tp630
a(S'int-lit'
p631
I2
tp632
atp633
tp634
asS'95c6161c509b0b41fd05467931d92060030fbcf8'
p635
(dp636
Voutput
p637
Vsyntax error in the input\u000aLikely error position (characters from the start of file): 0\u000aInput starting at this character: print{}\u000a
p638
sVvalue
p639
NssS'3ea01f34d5ca118f5e9dd85bed7b25475f04b082'
p640
(lp641
(S'def'
p642
S'x'
p643
(S'int-lit'
p644
I1
tp645
tp646
a(g642
g643
(S'int-lit'
p647
I2
tp648
tp649
asS'8523b810031b05edb6d41e227e07cf4fe5c3728f'
p650
(lp651
(S'def'
p652
S'x'
p653
(S'int-lit'
p654
I100
tp655
tp656
a(S'fdef'
p657
S'f'
p658
(lp659
(lp660
(S'asgn'
p661
g653
(S'-'
p662
(S'var'
p663
g653
tp664
(S'int-lit'
p665
I1
tp666
tp667
tp668
a(g657
S'f1'
p669
(lp670
(lp671
(g661
g653
(g662
(g663
g653
tp672
(S'int-lit'
p673
I2
tp674
tp675
tp676
a(g657
S'f2'
p677
(lp678
(lp679
(g661
g653
(g662
(g663
g653
tp680
(S'int-lit'
p681
I3
tp682
tp683
tp684
atp685
a(S'exp'
p686
(S'call'
p687
(g663
g677
tp688
(lp689
tp690
tp691
atp692
a(g686
(g687
(g663
g669
tp693
(lp694
tp695
tp696
atp697
a(g686
(g687
(g663
g658
tp698
(lp699
tp700
tp701
a(S'print'
p702
(g663
g653
tp703
tp704
asS'2cc945f4560b6ffaeac877722b7935399739e12a'
p705
(lp706
(S'print'
p707
(S'null'
p708
tp709
tp710
a(S'error'
p711
(S'int-lit'
p712
I0
tp713
tp714
asS'e9f8628b109e70061bd1b6574e50f608b5cdc4f0'
p715
(lp716
(S'print'
p717
(S'+'
p718
(S'int-lit'
p719
I1
tp720
(S'int-lit'
p721
I2
tp722
tp723
tp724
asS'bd7c190d64c1a46b5b0de9c98ca9a1f675a25c9c'
p725
(lp726
(S'fdef'
p727
S'f'
p728
(lp729
S'x'
p730
a(lp731
(S'def'
p732
g730
(S'int-lit'
p733
I1
tp734
tp735
a(S'exp'
p736
(S'var'
p737
g730
tp738
tp739
atp740
a(S'print'
p741
(S'call'
p742
(g737
g728
tp743
(lp744
(S'int-lit'
p745
I10
tp746
atp747
tp748
asS'1fa5b284f3ea044afcbabab03ca78cbb7c0f9d3d'
p749
(lp750
(S'print'
p751
(S'/'
p752
(S'int-lit'
p753
I1
tp754
(S'int-lit'
p755
I0
tp756
tp757
tp758
asS'47654342db675e568ce2722803d09a6b1e64234d'
p759
(lp760
(S'if'
p761
(S'var'
p762
S'x'
p763
tp764
(lp765
(S'print'
p766
(S'int-lit'
p767
I1
tp768
tp769
a(lp770
(g766
(S'int-lit'
p771
I2
tp772
tp773
atp774
a(S'def'
p775
S'y'
p776
(S'lambda'
p777
(lp778
(lp779
tp780
tp781
a(g766
(g762
g776
tp782
tp783
asS'c9c9945b27510824d3d3675eb4b6c7b887cc1cb2'
p784
(lp785
(S'def'
p786
S'x'
p787
(S'int-lit'
p788
I300
tp789
tp790
a(S'fdef'
p791
S'f1'
p792
(lp793
(lp794
(g786
g787
(S'int-lit'
p795
I100
tp796
tp797
a(S'exp'
p798
(S'var'
p799
g787
tp800
tp801
atp802
a(g791
S'f2'
p803
(lp804
(lp805
(g786
g787
(S'int-lit'
p806
I200
tp807
tp808
a(g798
(g799
g787
tp809
tp810
atp811
a(S'print'
p812
(g799
g787
tp813
tp814
a(g812
(S'call'
p815
(g799
g792
tp816
(lp817
tp818
tp819
a(g812
(g815
(g799
g803
tp820
(lp821
tp822
tp823
asS'4006e20cc0d1d41503ca5264ddd5313adc608ceb'
p824
(lp825
(S'print'
p826
(S'int-lit'
p827
I1
tp828
tp829
a(g826
(S'var'
p830
S'x'
p831
tp832
tp833
a(g826
(S'int-lit'
p834
I2
tp835
tp836
asS'94f46d3b19d5063c98299504f9e0c798d4300c6a'
p837
(lp838
(S'def'
p839
S'x'
p840
(S'int-lit'
p841
I1
tp842
tp843
a(S'exp'
p844
(S'lambda'
p845
(lp846
(lp847
(g839
g840
(S'int-lit'
p848
I2
tp849
tp850
a(S'print'
p851
(S'var'
p852
g840
tp853
tp854
atp855
tp856
a(g851
(g852
g840
tp857
tp858
asS'e00a31693dcfd7093e168ad57d2348a0093162ca'
p859
(lp860
(S'if'
p861
(S'lambda'
p862
(lp863
(lp864
tp865
(lp866
(S'print'
p867
(S'int-lit'
p868
I1
tp869
tp870
a(lp871
(g867
(S'int-lit'
p872
I2
tp873
tp874
atp875
asS'80f563f69bc6fbc429a3868422e3649507a2c083'
p876
(lp877
(S'fdef'
p878
S'f'
p879
(lp880
S'n'
p881
a(lp882
(S'if'
p883
(S'<'
p884
(S'var'
p885
g881
tp886
(S'int-lit'
p887
I10
tp888
tp889
(lp890
(S'exp'
p891
(S'int-lit'
p892
I1
tp893
tp894
a(S'print'
p895
(S'int-lit'
p896
I2
tp897
tp898
a(lp899
(S'def'
p900
S'x'
p901
(S'int-lit'
p902
I0
tp903
tp904
atp905
atp906
a(g895
(S'call'
p907
(g885
g879
tp908
(lp909
(S'int-lit'
p910
I0
tp911
atp912
tp913
asS'b0c0e0de1f161f8bcbff3f6d0cd80594526df84a'
p914
(dp915
Voutput
p916
Vsyntax error in the input\u000aLikely error position (characters from the start of file): 0\u000aInput starting at this character: {}\u000a
p917
sVvalue
p918
NssS'd0ecb72ba2700542de9454e395addeb518248e60'
p919
(lp920
(S'fdef'
p921
S'f'
p922
(lp923
S'n'
p924
a(lp925
(S'if'
p926
(S'<'
p927
(S'var'
p928
g924
tp929
(S'int-lit'
p930
I10
tp931
tp932
(lp933
(S'exp'
p934
(S'int-lit'
p935
I1
tp936
tp937
a(S'print'
p938
(S'int-lit'
p939
I2
tp940
tp941
a(lp942
(S'def'
p943
S'x'
p944
(S'int-lit'
p945
I0
tp946
tp947
atp948
atp949
a(g938
(S'call'
p950
(g928
g922
tp951
(lp952
(S'int-lit'
p953
I0
tp954
atp955
tp956
a(g938
(g950
(g928
g922
tp957
(lp958
(S'int-lit'
p959
I20
tp960
atp961
tp962
asS'e7cd9ad02e8cc2d204e8d16665085a07b23b5b0a'
p963
(lp964
(S'if'
p965
(S'lambda'
p966
(lp967
(lp968
tp969
(lp970
(S'print'
p971
(S'int-lit'
p972
I1
tp973
tp974
a(lp975
(g971
(S'int-lit'
p976
I2
tp977
tp978
atp979
a(S'def'
p980
S'y'
p981
(g966
(lp982
(lp983
tp984
tp985
a(g971
(S'var'
p986
g981
tp987
tp988
asS'8c08cb38d36c814e5b08ed4b01270c5b28c5bcbe'
p989
(lp990
(S'def'
p991
S'x'
p992
(S'int-lit'
p993
I1
tp994
tp995
a(g991
S'y'
p996
(S'lambda'
p997
(lp998
(lp999
(g991
g992
(S'int-lit'
p1000
I2
tp1001
tp1002
a(S'print'
p1003
(S'var'
p1004
g992
tp1005
tp1006
atp1007
tp1008
a(g1003
(S'call'
p1009
(g1004
g996
tp1010
(lp1011
tp1012
tp1013
a(g1003
(g1004
g992
tp1014
tp1015
asS'f71f595f53f3da01d7938db0f83049488ba6f2da'
p1016
(lp1017
(S'def'
p1018
S'x'
p1019
(S'lambda'
p1020
(lp1021
(lp1022
(S'print'
p1023
(S'null'
p1024
tp1025
tp1026
atp1027
tp1028
a(g1018
S'y'
p1029
(g1020
(lp1030
(lp1031
(g1023
(S'int-lit'
p1032
I1
tp1033
tp1034
atp1035
tp1036
a(g1018
S'i'
p1037
(S'int-lit'
p1038
I0
tp1039
tp1040
a(g1018
S'maxCount'
p1041
(S'int-lit'
p1042
I5
tp1043
tp1044
a(S'while'
p1045
(S'<'
p1046
(S'var'
p1047
g1037
tp1048
(g1047
g1041
tp1049
tp1050
(lp1051
(S'asgn'
p1052
g1037
(S'+'
p1053
(g1047
g1037
tp1054
(S'int-lit'
p1055
I1
tp1056
tp1057
tp1058
a(S'exp'
p1059
(S'call'
p1060
(g1047
g1019
tp1061
(lp1062
tp1063
tp1064
a(g1059
(g1060
(g1047
g1029
tp1065
(lp1066
tp1067
tp1068
atp1069
asS'2346ffac746cc227e7e1bbaab65eaeb684be0c4a'
p1070
(lp1071
(S'def'
p1072
S'x'
p1073
(S'null'
p1074
tp1075
tp1076
asS'ed6b5ca27fb282c9747f367ad4fd0aa844cf9ac1'
p1077
(lp1078
(S'def'
p1079
S'x'
p1080
(S'lambda'
p1081
(lp1082
(lp1083
(S'exp'
p1084
(S'null'
p1085
tp1086
tp1087
atp1088
tp1089
a(S'print'
p1090
(S'call'
p1091
(S'var'
p1092
g1080
tp1093
(lp1094
tp1095
tp1096
asS'2459d6513a900951e21d62ff42c0480b9869ac18'
p1097
(dp1098
Voutput
p1099
Vsyntax error in the input\u000aLikely error position (characters from the start of file): 0\u000aInput starting at this character: print{1,2}\u000a
p1100
sVvalue
p1101
NssS'f4a1975b1f5d784753cae897acc79d89ab65779c'
p1102
(lp1103
(S'if'
p1104
(S'int-lit'
p1105
I1
tp1106
(lp1107
(S'print'
p1108
(S'int-lit'
p1109
I1
tp1110
tp1111
a(lp1112
(g1108
(S'int-lit'
p1113
I2
tp1114
tp1115
atp1116
asS'93fc656601bf22a9653f655ea7d885848b83c8bc'
p1117
(dp1118
Voutput
p1119
Vsyntax error in the input\u000aLikely error position (characters from the start of file): 1\u000aInput starting at this character: ={}\u000a
p1120
sVvalue
p1121
NssS'12ec3b35a7f7c9226d6b791a5a6c7b87c1ebfe03'
p1122
(dp1123
Voutput
p1124
Vsyntax error in the input\u000aLikely error position (characters from the start of file): 0\u000aInput starting at this character: {a=1,b=2}\u000a
p1125
sVvalue
p1126
NssS'7b0e277bcfe39625c11bc7ab840387ba6011bb11'
p1127
(lp1128
(S'def'
p1129
S'x'
p1130
(S'int-lit'
p1131
I2
tp1132
tp1133
a(g1129
g1130
(S'int-lit'
p1134
I3
tp1135
tp1136
a(S'print'
p1137
(S'var'
p1138
g1130
tp1139
tp1140
asS'c68c9dd30530fff076d19299a1542669355b2367'
p1141
(lp1142
(S'fdef'
p1143
S'fib'
p1144
(lp1145
S'n'
p1146
a(lp1147
(S'if'
p1148
(S'=='
p1149
(S'var'
p1150
g1146
tp1151
(S'int-lit'
p1152
I0
tp1153
tp1154
(lp1155
(S'exp'
p1156
(S'int-lit'
p1157
I0
tp1158
tp1159
a(lp1160
(g1148
(S'=='
p1161
(g1150
g1146
tp1162
(S'int-lit'
p1163
I1
tp1164
tp1165
(lp1166
(g1156
(S'int-lit'
p1167
I1
tp1168
tp1169
a(lp1170
(g1156
(S'+'
p1171
(S'call'
p1172
(g1150
g1144
tp1173
(lp1174
(S'-'
p1175
(g1150
g1146
tp1176
(S'int-lit'
p1177
I1
tp1178
tp1179
atp1180
(g1172
(g1150
g1144
tp1181
(lp1182
(g1175
(g1150
g1146
tp1183
(S'int-lit'
p1184
I2
tp1185
tp1186
atp1187
tp1188
tp1189
atp1190
atp1191
atp1192
a(S'print'
p1193
(g1172
(g1150
g1144
tp1194
(lp1195
(S'int-lit'
p1196
I10
tp1197
atp1198
tp1199
asS'f4315b947bfe6af27054e55d503f5fc642567ad3'
p1200
(lp1201
(S'fdef'
p1202
S'iter'
p1203
(lp1204
(lp1205
(S'def'
p1206
S'x'
p1207
(S'int-lit'
p1208
I0
tp1209
tp1210
a(S'exp'
p1211
(S'lambda'
p1212
(lp1213
(lp1214
(S'if'
p1215
(S'<'
p1216
(S'var'
p1217
g1207
tp1218
(S'int-lit'
p1219
I3
tp1220
tp1221
(lp1222
(S'asgn'
p1223
g1207
(S'+'
p1224
(g1217
g1207
tp1225
(S'int-lit'
p1226
I1
tp1227
tp1228
tp1229
a(g1211
(g1217
g1207
tp1230
tp1231
a(lp1232
(g1211
(S'null'
p1233
tp1234
tp1235
atp1236
atp1237
tp1238
atp1239
a(g1206
S'A'
p1240
(g1217
g1203
tp1241
tp1242
a(g1206
S'B'
p1243
(g1217
g1203
tp1244
tp1245
a(S'for'
p1246
g1207
(S'call'
p1247
(g1217
g1240
tp1248
(lp1249
tp1250
(lp1251
(g1246
S'y'
p1252
(g1247
(g1217
g1243
tp1253
(lp1254
tp1255
(lp1256
(S'print'
p1257
(g1217
g1207
tp1258
tp1259
a(g1257
(g1217
g1252
tp1260
tp1261
atp1262
atp1263
asS'cffc1b4311d35609e76430782bf5ae1e1326c9df'
p1264
(lp1265
(S'if'
p1266
(S'int-lit'
p1267
I0
tp1268
(lp1269
(S'print'
p1270
(S'int-lit'
p1271
I0
tp1272
tp1273
a(lp1274
(g1270
(S'int-lit'
p1275
I1
tp1276
tp1277
atp1278
asS'd1dd1d12ceca5d060b257d4ea9098ed8e026fd44'
p1279
(dp1280
Vvalue
p1281
V\u000a\u000aclass ValueNode:\u000a    def __init__(self):\u000a        self.val = None\u000adef sdt():\u000a    acc = ValueNode()\u000a    stack = []\u000a    children = [ValueNode() for i in xrange(0,20)]\u000a    stack.append(children)\u000a    children = [ValueNode() for i in xrange(0,20)]\u000a    stack.append(children)\u000a    children = [ValueNode() for i in xrange(0,20)]\u000a    stack.append(children)\u000a    children = [ValueNode() for i in xrange(0,20)]\u000a    acc.val = None\u000a    children = stack.pop()\u000a    children[0].val = acc.val\u000a    acc.val = children[0].val\u000a    children = stack.pop()\u000a    children[0].val = acc.val\u000a    stack.append(children)\u000a    children = [ValueNode() for i in xrange(0,20)]\u000a    stack.append(children)\u000a    children = [ValueNode() for i in xrange(0,20)]\u000a    stack.append(children)\u000a    children = [ValueNode() for i in xrange(0,20)]\u000a    acc.val = 'print'\u000a    children = stack.pop()\u000a    children[0].val = acc.val\u000a    stack.append(children)\u000a    children = [ValueNode() for i in xrange(0,20)]\u000a    stack.append(children)\u000a    children = [ValueNode() for i in xrange(0,20)]\u000a    stack.append(children)\u000a    children = [ValueNode() for i in xrange(0,20)]\u000a    stack.append(children)\u000a    children = [ValueNode() for i in xrange(0,20)]\u000a    stack.append(children)\u000a    children = [ValueNode() for i in xrange(0,20)]\u000a    acc.val = '1'\u000a    children = stack.pop()\u000a    children[0].val = acc.val\u000a    def f3757(n0,n1): return int(n1.val)   \u000a    acc.val = f3757(acc, *children[0:1])\u000a    children = stack.pop()\u000a    children[0].val = acc.val\u000a    acc.val = children[0].val\u000a    children = stack.pop()\u000a    children[0].val = acc.val\u000a    def f3756(n0,n1): return ('int-lit', n1.val) \u000a    acc.val = f3756(acc, *children[0:1])\u000a    children = stack.pop()\u000a    children[0].val = acc.val\u000a    stack.append(children)\u000a    children = [ValueNode() for i in xrange(0,20)]\u000a    acc.val = '+'\u000a    children = stack.pop()\u000a    children[1].val = acc.val\u000a    stack.append(children)\u000a    children = [ValueNode() for i in xrange(0,20)]\u000a    stack.append(children)\u000a    children = [ValueNode() for i in xrange(0,20)]\u000a    stack.append(children)\u000a    children = [ValueNode() for i in xrange(0,20)]\u000a    stack.append(children)\u000a    children = [ValueNode() for i in xrange(0,20)]\u000a    acc.val = '1'\u000a    children = stack.pop()\u000a    children[0].val = acc.val\u000a    def f3757(n0,n1): return int(n1.val)   \u000a    acc.val = f3757(acc, *children[0:1])\u000a    children = stack.pop()\u000a    children[0].val = acc.val\u000a    acc.val = children[0].val\u000a    children = stack.pop()\u000a    children[0].val = acc.val\u000a    def f3756(n0,n1): return ('int-lit', n1.val) \u000a    acc.val = f3756(acc, *children[0:1])\u000a    children = stack.pop()\u000a    children[2].val = acc.val\u000a    def f3740(n0,n1,n2,n3): return ('+', n1.val, n3.val) \u000a    acc.val = f3740(acc, *children[0:3])\u000a    children = stack.pop()\u000a    children[1].val = acc.val\u000a    def f3735(n0,n1,n2): return [('print', n2.val)] \u000a    acc.val = f3735(acc, *children[0:2])\u000a    children = stack.pop()\u000a    children[0].val = acc.val\u000a    def f3762(n0,n1): return n1.val \u000a    acc.val = f3762(acc, *children[0:1])\u000a    children = stack.pop()\u000a    children[1].val = acc.val\u000a    stack.append(children)\u000a    children = [ValueNode() for i in xrange(0,20)]\u000a    stack.append(children)\u000a    children = [ValueNode() for i in xrange(0,20)]\u000a    acc.val = None\u000a    children = stack.pop()\u000a    children[0].val = acc.val\u000a    acc.val = children[0].val\u000a    children = stack.pop()\u000a    children[2].val = acc.val\u000a    def f3761(n0,n1,n2,n3): return n2.val \u000a    acc.val = f3761(acc, *children[0:3])\u000a    children = stack.pop()\u000a    children[0].val = acc.val\u000a    acc.val = children[0].val\u000a    return acc.val\u000aresult = sdt()\u000a
p1282
ssS'2502e1be49a7ca3e3e1d020e9812a7f999f4dcb7'
p1283
(dp1284
Voutput
p1285
Vsyntax error in the input\u000aLikely error position (characters from the start of file): 2\u000aInput starting at this character: ={}\u000a
p1286
sVvalue
p1287
NssS'648154c0faa8b817186e9957dde0e4bc8642a7c7'
p1288
(lp1289
(S'if'
p1290
(S'int-lit'
p1291
I1
tp1292
(lp1293
(S'print'
p1294
(S'int-lit'
p1295
I1
tp1296
tp1297
a(lp1298
(g1294
(S'int-lit'
p1299
I2
tp1300
tp1301
atp1302
asS'a4d07ac416f25aae722cb0ceb7ad32d8670dbaa0'
p1303
(lp1304
(S'def'
p1305
S'x'
p1306
(S'int-lit'
p1307
I1
tp1308
tp1309
a(S'fdef'
p1310
S'f'
p1311
(lp1312
(lp1313
(g1305
g1306
(S'int-lit'
p1314
I10
tp1315
tp1316
a(g1310
S'f1'
p1317
(lp1318
S'y'
p1319
a(lp1320
(g1305
g1306
(S'int-lit'
p1321
I100
tp1322
tp1323
a(S'asgn'
p1324
g1306
(S'+'
p1325
(S'var'
p1326
g1306
tp1327
(S'int-lit'
p1328
I1
tp1329
tp1330
tp1331
a(S'exp'
p1332
(g1326
g1306
tp1333
tp1334
atp1335
a(g1332
(g1326
g1317
tp1336
tp1337
atp1338
a(S'print'
p1339
(g1326
g1306
tp1340
tp1341
a(g1339
(S'call'
p1342
(g1342
(g1326
g1311
tp1343
(lp1344
tp1345
(lp1346
(S'int-lit'
p1347
I10
tp1348
atp1349
tp1350
asS'2cc5063e327afe2a527371a80a2dd00367f20b20'
p1351
(dp1352
Vvalue
p1353
V\u000a\u000aclass ValueNode:\u000a    def __init__(self):\u000a        self.val = None\u000adef sdt():\u000a    acc = ValueNode()\u000a    stack = []\u000a    children = [ValueNode() for i in xrange(0,20)]\u000a    stack.append(children)\u000a    children = [ValueNode() for i in xrange(0,20)]\u000a    stack.append(children)\u000a    children = [ValueNode() for i in xrange(0,20)]\u000a    stack.append(children)\u000a    children = [ValueNode() for i in xrange(0,20)]\u000a    acc.val = None\u000a    children = stack.pop()\u000a    children[0].val = acc.val\u000a    acc.val = children[0].val\u000a    children = stack.pop()\u000a    children[0].val = acc.val\u000a    stack.append(children)\u000a    children = [ValueNode() for i in xrange(0,20)]\u000a    stack.append(children)\u000a    children = [ValueNode() for i in xrange(0,20)]\u000a    stack.append(children)\u000a    children = [ValueNode() for i in xrange(0,20)]\u000a    acc.val = 'print'\u000a    children = stack.pop()\u000a    children[0].val = acc.val\u000a    stack.append(children)\u000a    children = [ValueNode() for i in xrange(0,20)]\u000a    stack.append(children)\u000a    children = [ValueNode() for i in xrange(0,20)]\u000a    acc.val = 'null'\u000a    children = stack.pop()\u000a    children[0].val = acc.val\u000a    def f3877(n0,n1): return ('null',) \u000a    acc.val = f3877(acc, *children[0:1])\u000a    children = stack.pop()\u000a    children[1].val = acc.val\u000a    def f3861(n0,n1,n2): return [('print', n2.val)] \u000a    acc.val = f3861(acc, *children[0:2])\u000a    children = stack.pop()\u000a    children[0].val = acc.val\u000a    def f3888(n0,n1): return n1.val \u000a    acc.val = f3888(acc, *children[0:1])\u000a    children = stack.pop()\u000a    children[1].val = acc.val\u000a    stack.append(children)\u000a    children = [ValueNode() for i in xrange(0,20)]\u000a    stack.append(children)\u000a    children = [ValueNode() for i in xrange(0,20)]\u000a    acc.val = None\u000a    children = stack.pop()\u000a    children[0].val = acc.val\u000a    acc.val = children[0].val\u000a    children = stack.pop()\u000a    children[2].val = acc.val\u000a    def f3887(n0,n1,n2,n3): return n2.val \u000a    acc.val = f3887(acc, *children[0:3])\u000a    children = stack.pop()\u000a    children[0].val = acc.val\u000a    acc.val = children[0].val\u000a    return acc.val\u000aresult = sdt()\u000a
p1354
ssS'd7b1013bc0189c92255f1e38500851105399d70a'
p1355
(lp1356
(S'fdef'
p1357
S'f'
p1358
(lp1359
S'n'
p1360
a(lp1361
(S'if'
p1362
(S'<'
p1363
(S'var'
p1364
g1360
tp1365
(S'int-lit'
p1366
I10
tp1367
tp1368
(lp1369
(S'exp'
p1370
(S'int-lit'
p1371
I1
tp1372
tp1373
a(S'print'
p1374
(S'int-lit'
p1375
I2
tp1376
tp1377
a(lp1378
(S'def'
p1379
S'x'
p1380
(S'int-lit'
p1381
I0
tp1382
tp1383
a(S'asgn'
p1384
g1380
(S'int-lit'
p1385
I3
tp1386
tp1387
atp1388
atp1389
a(g1374
(S'call'
p1390
(g1364
g1358
tp1391
(lp1392
(S'int-lit'
p1393
I0
tp1394
atp1395
tp1396
a(g1374
(g1390
(g1364
g1358
tp1397
(lp1398
(S'int-lit'
p1399
I10
tp1400
atp1401
tp1402
asS'dfd0fb78e6b93f943da8e298d6c264303cc6a3ae'
p1403
(dp1404
Voutput
p1405
Vsyntax error in the input\u000aLikely error position (characters from the start of file): 0\u000aInput starting at this character: print{}\u000a
p1406
sVvalue
p1407
NssS'de29f0d1a9b3b103551c4876f9fe9fd05f7c47b6'
p1408
(lp1409
(S'fdef'
p1410
S'printOut'
p1411
(lp1412
S'i'
p1413
a(lp1414
(S'print'
p1415
(S'var'
p1416
g1413
tp1417
tp1418
atp1419
a(S'exp'
p1420
(S'ite'
p1421
(S'int-lit'
p1422
I1
tp1423
(S'call'
p1424
(g1416
g1411
tp1425
(lp1426
(S'int-lit'
p1427
I1
tp1428
atp1429
(g1424
(g1416
g1411
tp1430
(lp1431
(S'int-lit'
p1432
I2
tp1433
atp1434
tp1435
tp1436
asS'f671a4a276508aaa2fd72bd5265ed1892721ad45'
p1437
(dp1438
Voutput
p1439
Vsyntax error in the input\u000aLikely error position (characters from the start of file): 2\u000aInput starting at this character: ={}\u000a
p1440
sVvalue
p1441
NssS'ac0fb15d82a883e7edfb2608d4ee5713701ff9ac'
p1442
(lp1443
(S'fdef'
p1444
S'f'
p1445
(lp1446
(lp1447
(S'print'
p1448
(S'int-lit'
p1449
I100
tp1450
tp1451
atp1452
a(S'def'
p1453
g1445
(S'int-lit'
p1454
I200
tp1455
tp1456
a(g1448
(S'var'
p1457
g1445
tp1458
tp1459
asS'aac9c30b9689b4149ce09ddfcac1c3854f6a65fe'
p1460
(lp1461
(S'if'
p1462
(S'null'
p1463
tp1464
(lp1465
(lp1466
(S'print'
p1467
(S'null'
p1468
tp1469
tp1470
atp1471
asS'f4262f696398237b470dc65be980c060a72a71f9'
p1472
(lp1473
(S'def'
p1474
S'y'
p1475
(S'+'
p1476
(S'int-lit'
p1477
I1
tp1478
(S'int-lit'
p1479
I2
tp1480
tp1481
tp1482
a(S'print'
p1483
(S'var'
p1484
g1475
tp1485
tp1486
a(S'fdef'
p1487
S'add'
p1488
(lp1489
S'x'
p1490
ag1475
a(lp1491
(g1474
S'z'
p1492
(g1476
(g1484
g1490
tp1493
(g1484
g1475
tp1494
tp1495
tp1496
a(S'exp'
p1497
(g1484
g1492
tp1498
tp1499
atp1500
a(S'asgn'
p1501
g1475
(S'call'
p1502
(g1484
g1488
tp1503
(lp1504
(S'int-lit'
p1505
I2
tp1506
a(S'int-lit'
p1507
I2
tp1508
atp1509
tp1510
a(g1483
(g1484
g1475
tp1511
tp1512
a(g1501
g1475
(S'lambda'
p1513
(lp1514
S'a'
p1515
aS'b'
p1516
a(lp1517
(g1497
(S'*'
p1518
(g1484
g1515
tp1519
(g1484
g1516
tp1520
tp1521
tp1522
atp1523
tp1524
a(g1483
(g1502
(g1484
g1475
tp1525
(lp1526
(S'int-lit'
p1527
I2
tp1528
a(S'int-lit'
p1529
I3
tp1530
atp1531
tp1532
asS'd92eda8bf54af2801d58155280a679193917e54c'
p1533
(dp1534
Vvalue
p1535
V\u000a\u000aclass ValueNode:\u000a    def __init__(self):\u000a        self.val = None\u000adef sdt():\u000a    acc = ValueNode()\u000a    stack = []\u000a    children = [ValueNode() for i in xrange(0,20)]\u000a    stack.append(children)\u000a    children = [ValueNode() for i in xrange(0,20)]\u000a    stack.append(children)\u000a    children = [ValueNode() for i in xrange(0,20)]\u000a    stack.append(children)\u000a    children = [ValueNode() for i in xrange(0,20)]\u000a    acc.val = None\u000a    children = stack.pop()\u000a    children[0].val = acc.val\u000a    acc.val = children[0].val\u000a    children = stack.pop()\u000a    children[0].val = acc.val\u000a    stack.append(children)\u000a    children = [ValueNode() for i in xrange(0,20)]\u000a    stack.append(children)\u000a    children = [ValueNode() for i in xrange(0,20)]\u000a    stack.append(children)\u000a    children = [ValueNode() for i in xrange(0,20)]\u000a    stack.append(children)\u000a    children = [ValueNode() for i in xrange(0,20)]\u000a    acc.val = 'null'\u000a    children = stack.pop()\u000a    children[0].val = acc.val\u000a    def f4059(n0,n1): return ('null',) \u000a    acc.val = f4059(acc, *children[0:1])\u000a    children = stack.pop()\u000a    children[0].val = acc.val\u000a    def f4039(n0,n1): return [('exp', n1.val)]          \u000a    acc.val = f4039(acc, *children[0:1])\u000a    children = stack.pop()\u000a    children[0].val = acc.val\u000a    def f4070(n0,n1): return n1.val \u000a    acc.val = f4070(acc, *children[0:1])\u000a    children = stack.pop()\u000a    children[1].val = acc.val\u000a    stack.append(children)\u000a    children = [ValueNode() for i in xrange(0,20)]\u000a    stack.append(children)\u000a    children = [ValueNode() for i in xrange(0,20)]\u000a    acc.val = None\u000a    children = stack.pop()\u000a    children[0].val = acc.val\u000a    acc.val = children[0].val\u000a    children = stack.pop()\u000a    children[2].val = acc.val\u000a    def f4069(n0,n1,n2,n3): return n2.val \u000a    acc.val = f4069(acc, *children[0:3])\u000a    children = stack.pop()\u000a    children[0].val = acc.val\u000a    acc.val = children[0].val\u000a    return acc.val\u000aresult = sdt()\u000a
p1536
ssS'95db2c956b3f25df5a9381cf6a989c16c9bec1d1'
p1537
(lp1538
(S'if'
p1539
(S'null'
p1540
tp1541
(lp1542
(lp1543
(S'print'
p1544
(S'null'
p1545
tp1546
tp1547
atp1548
as.