(dp0
S'067bcb93ba152d34a1708879ba0a91d8d7f83627'
p1
(lp2
(S'def'
p3
S'a'
p4
(S'dict-lit'
p5
(lp6
(S'x'
p7
(S'int-lit'
p8
I0
tp9
tp10
a(S'foobar'
p11
(S'+'
p12
(S'int-lit'
p13
I1
tp14
(S'int-lit'
p15
I2
tp16
tp17
tp18
atp19
tp20
a(S'print'
p21
(S'get'
p22
(S'var'
p23
g4
tp24
(S'string-lit'
p25
g7
tp26
tp27
tp28
a(g21
(g22
(g23
g4
tp29
(S'string-lit'
p30
g11
tp31
tp32
tp33
a(g21
(S'in'
p34
(S'string-lit'
p35
S'z'
p36
tp37
(g23
g4
tp38
tp39
tp40
a(g21
(g22
(g23
g4
tp41
(S'string-lit'
p42
g36
tp43
tp44
tp45
asS'788dac3f0990d2b5bfc2a911712ac6a80deeefe8'
p46
(lp47
(S'def'
p48
S'true'
p49
(S'int-lit'
p50
I1
tp51
tp52
a(g48
S'false'
p53
(S'int-lit'
p54
I0
tp55
tp56
a(g48
S'isEven'
p57
(S'lambda'
p58
(lp59
S'a'
p60
a(lp61
(S'if'
p62
(S'=='
p63
(S'var'
p64
g60
tp65
(S'int-lit'
p66
I0
tp67
tp68
(lp69
(S'exp'
p70
(g64
g49
tp71
tp72
a(lp73
(g70
(S'call'
p74
(g64
S'isOdd'
p75
tp76
(lp77
(S'-'
p78
(g64
g60
tp79
(S'int-lit'
p80
I1
tp81
tp82
atp83
tp84
atp85
atp86
tp87
a(g48
g75
(g58
(lp88
S'b'
p89
a(lp90
(g62
(S'=='
p91
(g64
g89
tp92
(S'int-lit'
p93
I0
tp94
tp95
(lp96
(g70
(g64
g53
tp97
tp98
a(lp99
(g70
(g74
(g64
g57
tp100
(lp101
(g78
(g64
g89
tp102
(S'int-lit'
p103
I1
tp104
tp105
atp106
tp107
atp108
atp109
tp110
a(S'print'
p111
(g74
(g64
g57
tp112
(lp113
(S'int-lit'
p114
I10
tp115
atp116
tp117
asS'1ba45f3cca65032a0f6b347ab8d8457ad68c5285'
p118
(lp119
(S'def'
p120
S'x'
p121
(S'int-lit'
p122
I0
tp123
tp124
a(S'while'
p125
(S'<'
p126
(S'var'
p127
g121
tp128
(S'int-lit'
p129
I10
tp130
tp131
(lp132
(S'asgn'
p133
g121
(S'+'
p134
(g127
g121
tp135
(S'int-lit'
p136
I1
tp137
tp138
tp139
atp140
a(S'print'
p141
(g127
g121
tp142
tp143
a(g125
(g126
(g127
g121
tp144
(S'int-lit'
p145
I20
tp146
tp147
(lp148
(g133
g121
(g134
(g127
g121
tp149
(S'int-lit'
p150
I1
tp151
tp152
tp153
atp154
a(g141
(g127
g121
tp155
tp156
asS'8c916a9e9af8ca2720351928dfb5dfb00a5cb439'
p157
(lp158
(S'if'
p159
(S'var'
p160
S'x'
p161
tp162
(lp163
(S'print'
p164
(S'int-lit'
p165
I1
tp166
tp167
a(lp168
(g164
(S'int-lit'
p169
I2
tp170
tp171
atp172
a(S'def'
p173
S'y'
p174
(S'lambda'
p175
(lp176
(lp177
tp178
tp179
a(g164
(g160
g174
tp180
tp181
asS'1c9540a29bb528463f71231dfcb9bd6613ac389b'
p182
(lp183
(S'def'
p184
S'iter'
p185
(S'lambda'
p186
(lp187
S'y'
p188
a(lp189
(S'exp'
p190
(S'yield'
p191
(S'var'
p192
g188
tp193
tp194
tp195
a(S'if'
p196
(S'=='
p197
(g192
g188
tp198
(S'int-lit'
p199
I0
tp200
tp201
(lp202
(g190
(S'int-lit'
p203
I0
tp204
tp205
a(lp206
(g184
S'x'
p207
(S'-'
p208
(g192
g188
tp209
(S'int-lit'
p210
I1
tp211
tp212
tp213
a(g190
(S'call'
p214
(g192
g185
tp215
(lp216
(g192
g207
tp217
atp218
tp219
atp220
atp221
tp222
a(g184
S'getVal'
p223
(g186
(lp224
g188
a(lp225
(g190
(g214
(g192
g185
tp226
(lp227
(g192
g188
tp228
atp229
tp230
a(g190
(S'null'
p231
tp232
tp233
atp234
tp235
a(g184
g188
(S'int-lit'
p236
I2
tp237
tp238
a(g184
S'co'
p239
(S'coroutine'
p240
(g192
g223
tp241
tp242
tp243
a(S'print'
p244
(S'resume'
p245
(g192
g239
tp246
(g192
g188
tp247
tp248
tp249
a(g244
(g245
(g192
g239
tp250
(g192
g188
tp251
tp252
tp253
a(g244
(g245
(g192
g239
tp254
(g192
g188
tp255
tp256
tp257
a(g244
(g245
(g192
g239
tp258
(g192
g188
tp259
tp260
tp261
a(g244
(g245
(g192
g239
tp262
(g192
g188
tp263
tp264
tp265
a(g244
(g245
(g192
g239
tp266
(g192
g188
tp267
tp268
tp269
asS'bfdfc00406d41d693a1a7aeeee1e31d9421054cc'
p270
(lp271
(S'def'
p272
S'test'
p273
(S'lambda'
p274
(lp275
(lp276
(S'print'
p277
(S'string-lit'
p278
S'Fail'
p279
tp280
tp281
a(S'exp'
p282
(S'int-lit'
p283
I1
tp284
tp285
atp286
tp287
a(S'if'
p288
(S'||'
p289
(S'int-lit'
p290
I1
tp291
(S'call'
p292
(S'var'
p293
g273
tp294
(lp295
tp296
tp297
(lp298
(g277
(S'string-lit'
p299
S'Done'
p300
tp301
tp302
aNtp303
asS'9ab1da8efa03ff99b6c69780d9e35e0b285a9884'
p304
(lp305
(S'def'
p306
S'iter'
p307
(S'lambda'
p308
(lp309
(lp310
(g306
S'x'
p311
(S'int-lit'
p312
I0
tp313
tp314
a(S'exp'
p315
(g308
(lp316
(lp317
(S'if'
p318
(S'<'
p319
(S'var'
p320
g311
tp321
(S'int-lit'
p322
I3
tp323
tp324
(lp325
(S'asgn'
p326
g311
(S'+'
p327
(g320
g311
tp328
(S'int-lit'
p329
I1
tp330
tp331
tp332
a(g315
(g320
g311
tp333
tp334
a(lp335
(g315
(S'null'
p336
tp337
tp338
atp339
atp340
tp341
atp342
tp343
a(g306
S'A'
p344
(g320
g307
tp345
tp346
a(g306
S'B'
p347
(g320
g307
tp348
tp349
a(S'for'
p350
g311
(S'call'
p351
(g320
g344
tp352
(lp353
tp354
(lp355
(g350
S'y'
p356
(g351
(g320
g347
tp357
(lp358
tp359
(lp360
(S'print'
p361
(g320
g311
tp362
tp363
a(g361
(g320
g356
tp364
tp365
atp366
atp367
asS'90d84d7ffd3c1ea1dd1f20a4f2fc29f7e568aa0f'
p368
(lp369
(S'def'
p370
S'iter'
p371
(S'lambda'
p372
(lp373
(lp374
(g370
S'i'
p375
(S'int-lit'
p376
I0
tp377
tp378
a(S'exp'
p379
(g372
(lp380
(lp381
(S'if'
p382
(S'<'
p383
(S'var'
p384
g375
tp385
(S'int-lit'
p386
I10
tp387
tp388
(lp389
(S'asgn'
p390
g375
(S'+'
p391
(g384
g375
tp392
(S'int-lit'
p393
I1
tp394
tp395
tp396
a(g379
(g384
g375
tp397
tp398
a(lp399
(g379
(S'null'
p400
tp401
tp402
atp403
atp404
tp405
atp406
tp407
a(S'for'
p408
S'x'
p409
(S'call'
p410
(g384
g371
tp411
(lp412
tp413
(lp414
(S'print'
p415
(g384
g409
tp416
tp417
atp418
asS'25080a0a8d1908a67e97c06c771b1765209efacd'
p419
(lp420
(S'for'
p421
S'x'
p422
(S'int-lit'
p423
I3
tp424
(lp425
(S'print'
p426
(S'int-lit'
p427
I1
tp428
tp429
atp430
asS'77291d7e80e49ce028ae8c873071af0fd6691dde'
p431
(lp432
(S'def'
p433
S'x'
p434
(S'int-lit'
p435
I1
tp436
tp437
a(g433
S'y'
p438
(S'lambda'
p439
(lp440
(lp441
(g433
g434
(S'int-lit'
p442
I2
tp443
tp444
a(S'print'
p445
(S'var'
p446
g434
tp447
tp448
atp449
tp450
a(g445
(S'call'
p451
(g446
g438
tp452
(lp453
tp454
tp455
a(g445
(g446
g434
tp456
tp457
asS'de55aeccd60b6c799400a3b0487bfb636aed7bcc'
p458
(lp459
(S'def'
p460
S'f'
p461
(S'lambda'
p462
(lp463
(lp464
(S'print'
p465
(S'int-lit'
p466
I100
tp467
tp468
atp469
tp470
a(g460
g461
(S'int-lit'
p471
I200
tp472
tp473
a(g465
(S'var'
p474
g461
tp475
tp476
asS'dcd908560b0da33a4ae94a0e8a8b133f8ba0e815'
p477
(lp478
(S'def'
p479
S'iter'
p480
(S'lambda'
p481
(lp482
(lp483
(g479
S'i'
p484
(S'int-lit'
p485
I0
tp486
tp487
a(S'exp'
p488
(g481
(lp489
(lp490
(S'if'
p491
(S'<'
p492
(S'var'
p493
g484
tp494
(S'int-lit'
p495
I10
tp496
tp497
(lp498
(S'asgn'
p499
g484
(S'+'
p500
(g493
g484
tp501
(S'int-lit'
p502
I1
tp503
tp504
tp505
a(g488
(g493
g484
tp506
tp507
a(lp508
(g488
(S'null'
p509
tp510
tp511
atp512
atp513
tp514
atp515
tp516
a(g479
S'res0'
p517
(S'int-lit'
p518
I0
tp519
tp520
a(g479
S'res9'
p521
(S'int-lit'
p522
I0
tp523
tp524
a(S'for'
p525
S'x'
p526
(S'call'
p527
(g493
g480
tp528
(lp529
tp530
(lp531
(g491
(S'=='
p532
(g493
g526
tp533
(S'int-lit'
p534
I1
tp535
tp536
(lp537
(g499
g517
(g481
(lp538
(lp539
(g488
(g493
g526
tp540
tp541
atp542
tp543
a(lp544
(g499
g521
(g481
(lp545
(lp546
(g488
(g493
g526
tp547
tp548
atp549
tp550
atp551
atp552
a(S'print'
p553
(g527
(g493
g517
tp554
(lp555
tp556
tp557
a(g553
(g527
(g493
g521
tp558
(lp559
tp560
tp561
asS'16e7ca2e035f73fca00f725d07fbbfd635642e89'
p562
(lp563
(S'def'
p564
S'f'
p565
(S'lambda'
p566
(lp567
(lp568
(g564
S'x'
p569
(S'int-lit'
p570
I1
tp571
tp572
a(S'exp'
p573
(g566
(lp574
(lp575
(g573
(S'+'
p576
(S'var'
p577
g569
tp578
(S'int-lit'
p579
I1
tp580
tp581
tp582
atp583
tp584
atp585
tp586
a(g564
g569
(S'int-lit'
p587
I0
tp588
tp589
a(S'print'
p590
(S'call'
p591
(g591
(g577
g565
tp592
(lp593
tp594
(lp595
tp596
tp597
asS'935b6dff2caf8ee7bbdf416e1c18f725f7edfa51'
p598
(lp599
(S'def'
p600
S'range'
p601
(S'lambda'
p602
(lp603
S'start'
p604
aS'end'
p605
aS'distance'
p606
a(lp607
(g600
S'i'
p608
(S'var'
p609
g604
tp610
tp611
a(S'exp'
p612
(g602
(lp613
(lp614
(S'if'
p615
(S'<'
p616
(g609
g608
tp617
(g609
g605
tp618
tp619
(lp620
(S'asgn'
p621
g608
(S'+'
p622
(g609
g608
tp623
(g609
g606
tp624
tp625
tp626
a(g612
(g609
g608
tp627
tp628
a(lp629
(g612
(S'null'
p630
tp631
tp632
atp633
atp634
tp635
atp636
tp637
a(S'for'
p638
S'x'
p639
(S'call'
p640
(g609
g601
tp641
(lp642
(S'int-lit'
p643
I0
tp644
a(S'int-lit'
p645
I10
tp646
a(S'int-lit'
p647
I2
tp648
atp649
(lp650
(S'print'
p651
(g609
g639
tp652
tp653
atp654
asS'5cc4b4cdeb141aeb12a6678e3b4eb726cb0bfae4'
p655
(lp656
(S'def'
p657
S'f'
p658
(S'lambda'
p659
(lp660
(lp661
(g657
S'x'
p662
(S'int-lit'
p663
I1
tp664
tp665
a(S'exp'
p666
(g659
(lp667
(lp668
(g666
(S'+'
p669
(S'var'
p670
g662
tp671
(S'int-lit'
p672
I1
tp673
tp674
tp675
atp676
tp677
atp678
tp679
a(g657
g662
(S'int-lit'
p680
I0
tp681
tp682
a(S'print'
p683
(S'call'
p684
(g684
(g670
g658
tp685
(lp686
tp687
(lp688
tp689
tp690
asS'3be866b360212701574de22ae1f79e3b2e6fb98d'
p691
(lp692
(S'if'
p693
(S'int-lit'
p694
I1
tp695
(lp696
(S'print'
p697
(S'int-lit'
p698
I1
tp699
tp700
a(lp701
(g697
(S'int-lit'
p702
I2
tp703
tp704
atp705
asS'89e01c95ec7d07c704ea5a23861d443b48ba435e'
p706
(lp707
(S'if'
p708
(S'null'
p709
tp710
(lp711
(lp712
(S'print'
p713
(S'null'
p714
tp715
tp716
atp717
asS'2f96614bf231bb9b7acdcd570c60b6c6bda76a85'
p718
(lp719
(S'def'
p720
S'f'
p721
(S'lambda'
p722
(lp723
S'x'
p724
a(lp725
(g720
S'y'
p726
(S'yield'
p727
(S'var'
p728
g724
tp729
tp730
tp731
a(S'exp'
p732
(S'+'
p733
(g728
g724
tp734
(g728
g726
tp735
tp736
tp737
atp738
tp739
a(g720
S'co'
p740
(S'coroutine'
p741
(g728
g721
tp742
tp743
tp744
a(S'print'
p745
(S'resume'
p746
(g728
g740
tp747
(S'int-lit'
p748
I1
tp749
tp750
tp751
a(g745
(g746
(g728
g740
tp752
(S'int-lit'
p753
I2
tp754
tp755
tp756
a(g745
(g746
(g728
g740
tp757
(S'int-lit'
p758
I3
tp759
tp760
tp761
asS'6c92335bb3a39c0c9e742d50b8e34a1cc1f209a7'
p762
(lp763
(S'def'
p764
S'printOut'
p765
(S'lambda'
p766
(lp767
S'i'
p768
a(lp769
(S'print'
p770
(S'var'
p771
g768
tp772
tp773
atp774
tp775
a(S'exp'
p776
(S'ite'
p777
(S'int-lit'
p778
I1
tp779
(S'call'
p780
(g771
g765
tp781
(lp782
(S'int-lit'
p783
I1
tp784
atp785
(g780
(g771
g765
tp786
(lp787
(S'int-lit'
p788
I2
tp789
atp790
tp791
tp792
asS'5e96f70356788d0d93ca49ae6dd4f6d50e2712f4'
p793
(lp794
(S'def'
p795
S'x'
p796
(S'int-lit'
p797
I50
tp798
tp799
a(g795
S'y'
p800
(S'int-lit'
p801
I100
tp802
tp803
a(g795
S'f'
p804
(S'lambda'
p805
(lp806
g796
a(lp807
(S'asgn'
p808
g796
(S'+'
p809
(S'var'
p810
g796
tp811
(S'int-lit'
p812
I100
tp813
tp814
tp815
a(S'exp'
p816
(g810
g796
tp817
tp818
atp819
tp820
a(S'print'
p821
(S'call'
p822
(g810
g804
tp823
(lp824
(g810
g796
tp825
atp826
tp827
a(g821
(g822
(g810
g804
tp828
(lp829
(g810
g800
tp830
atp831
tp832
a(g821
(g810
g796
tp833
tp834
asS'170b8e09d8cce5ba242508ccd20b8b0e801d807c'
p835
(lp836
(S'def'
p837
S'f'
p838
(S'lambda'
p839
(lp840
S'x'
p841
a(lp842
(g837
g841
(S'int-lit'
p843
I1
tp844
tp845
a(S'exp'
p846
(S'var'
p847
g841
tp848
tp849
atp850
tp851
a(S'print'
p852
(S'call'
p853
(g847
g838
tp854
(lp855
(S'int-lit'
p856
I10
tp857
atp858
tp859
asS'5c93960c8c3e06eb0cea1672b50064f27c293e31'
p860
(lp861
(S'def'
p862
S'l1'
p863
(S'dict-lit'
p864
(lp865
tp866
tp867
a(S'put'
p868
(S'var'
p869
g863
tp870
(S'int-lit'
p871
I0
tp872
(S'int-lit'
p873
I0
tp874
tp875
a(g868
(g869
g863
tp876
(S'int-lit'
p877
I1
tp878
(S'int-lit'
p879
I1
tp880
tp881
a(g868
(g869
g863
tp882
(S'int-lit'
p883
I2
tp884
(S'int-lit'
p885
I2
tp886
tp887
a(g862
S'l2'
p888
(S'comprehension'
p889
(S'+'
p890
(g869
S'x'
p891
tp892
(S'int-lit'
p893
I1
tp894
tp895
g891
(g869
g863
tp896
tp897
tp898
a(S'print'
p899
(S'get'
p900
(g869
g888
tp901
(S'int-lit'
p902
I0
tp903
tp904
tp905
a(g899
(g900
(g869
g888
tp906
(S'int-lit'
p907
I1
tp908
tp909
tp910
a(g899
(g900
(g869
g888
tp911
(S'int-lit'
p912
I2
tp913
tp914
tp915
asS'25aeae68e96be6019e15d2f86f04bbe7fb94c282'
p916
(lp917
(S'def'
p918
S'i'
p919
(S'int-lit'
p920
I0
tp921
tp922
a(g918
S'maxCount'
p923
(S'int-lit'
p924
I5
tp925
tp926
a(S'while'
p927
(S'<'
p928
(S'var'
p929
g919
tp930
(g929
g923
tp931
tp932
(lp933
(S'asgn'
p934
g919
(S'+'
p935
(g929
g919
tp936
(S'int-lit'
p937
I1
tp938
tp939
tp940
a(g918
S'j'
p941
(S'int-lit'
p942
I0
tp943
tp944
a(g927
(g928
(g929
g941
tp945
(g935
(g929
g919
tp946
(S'int-lit'
p947
I1
tp948
tp949
tp950
(lp951
(S'print'
p952
(g929
g941
tp953
tp954
a(g934
g941
(g935
(g929
g941
tp955
(S'int-lit'
p956
I1
tp957
tp958
tp959
atp960
atp961
asS'9f2e61d75b71f7e4f47be3b5c2b23a65e9b54b00'
p962
(lp963
(S'if'
p964
(S'int-lit'
p965
I1
tp966
(lp967
(S'print'
p968
(S'int-lit'
p969
I1
tp970
tp971
a(lp972
(g968
(S'int-lit'
p973
I2
tp974
tp975
atp976
asS'693923143022b96a0283ae7d4344e146e4745711'
p977
(lp978
(S'if'
p979
(S'lambda'
p980
(lp981
(lp982
(S'exp'
p983
(S'int-lit'
p984
I0
tp985
tp986
atp987
(lp988
(S'print'
p989
(S'int-lit'
p990
I1
tp991
tp992
a(lp993
tp994
a(g989
(S'int-lit'
p995
I2
tp996
tp997
asS'1a5d020e9017c8e46b2519395c9bb437794f16ba'
p998
(lp999
(S'def'
p1000
S'y'
p1001
(S'+'
p1002
(S'int-lit'
p1003
I1
tp1004
(S'int-lit'
p1005
I2
tp1006
tp1007
tp1008
a(S'print'
p1009
(S'var'
p1010
g1001
tp1011
tp1012
a(g1000
S'add'
p1013
(S'lambda'
p1014
(lp1015
S'x'
p1016
ag1001
a(lp1017
(g1000
S'z'
p1018
(g1002
(g1010
g1016
tp1019
(g1010
g1001
tp1020
tp1021
tp1022
a(S'exp'
p1023
(g1010
g1018
tp1024
tp1025
atp1026
tp1027
a(S'asgn'
p1028
g1001
(S'call'
p1029
(g1010
g1013
tp1030
(lp1031
(S'int-lit'
p1032
I2
tp1033
a(S'int-lit'
p1034
I2
tp1035
atp1036
tp1037
a(g1009
(g1010
g1001
tp1038
tp1039
a(g1028
g1001
(g1014
(lp1040
S'a'
p1041
aS'b'
p1042
a(lp1043
(g1023
(S'*'
p1044
(g1010
g1041
tp1045
(g1010
g1042
tp1046
tp1047
tp1048
atp1049
tp1050
a(g1009
(g1029
(g1010
g1001
tp1051
(lp1052
(S'int-lit'
p1053
I2
tp1054
a(S'int-lit'
p1055
I3
tp1056
atp1057
tp1058
asS'7650a75291bceaad55f0c4ae4ee10411dc92b692'
p1059
(lp1060
(S'print'
p1061
(S'null'
p1062
tp1063
tp1064
a(S'error'
p1065
(S'int-lit'
p1066
I0
tp1067
tp1068
a(g1061
(S'int-lit'
p1069
I1
tp1070
tp1071
a(g1061
(S'int-lit'
p1072
I1
tp1073
tp1074
asS'6ab46a7c59c8721010340fd504912457da00bb38'
p1075
(lp1076
(S'print'
p1077
(S'/'
p1078
(S'int-lit'
p1079
I1
tp1080
(S'int-lit'
p1081
I0
tp1082
tp1083
tp1084
asS'b177605f99648b98a82c8c078689a8cd3e3adaaf'
p1085
(lp1086
(S'def'
p1087
S'f'
p1088
(S'lambda'
p1089
(lp1090
S'a'
p1091
a(lp1092
(S'while'
p1093
(S'<'
p1094
(S'var'
p1095
g1091
tp1096
(S'int-lit'
p1097
I10
tp1098
tp1099
(lp1100
(S'asgn'
p1101
g1091
(S'+'
p1102
(g1095
g1091
tp1103
(S'int-lit'
p1104
I1
tp1105
tp1106
tp1107
a(S'exp'
p1108
(g1095
g1091
tp1109
tp1110
atp1111
atp1112
tp1113
a(S'print'
p1114
(S'call'
p1115
(g1095
g1088
tp1116
(lp1117
(S'int-lit'
p1118
I3
tp1119
atp1120
tp1121
asS'25943123fb0c3debd65ce7d471165c0036181a54'
p1122
(lp1123
(S'while'
p1124
(S'lambda'
p1125
(lp1126
(lp1127
(S'exp'
p1128
(S'int-lit'
p1129
I0
tp1130
tp1131
atp1132
(lp1133
(S'print'
p1134
(S'int-lit'
p1135
I1
tp1136
tp1137
atp1138
a(g1134
(S'int-lit'
p1139
I2
tp1140
tp1141
asS'2b1843d43f63d7f7084dabcb637a8ee13d793240'
p1142
(lp1143
(S'def'
p1144
S'f1'
p1145
(S'lambda'
p1146
(lp1147
(lp1148
(g1144
S'y'
p1149
(S'int-lit'
p1150
I3
tp1151
tp1152
a(S'exp'
p1153
(S'var'
p1154
g1149
tp1155
tp1156
atp1157
tp1158
a(S'print'
p1159
(S'call'
p1160
(g1154
g1145
tp1161
(lp1162
tp1163
tp1164
a(S'asgn'
p1165
g1149
(S'int-lit'
p1166
I10
tp1167
tp1168
a(g1159
(g1154
g1149
tp1169
tp1170
asS'500d9b674a0c76dfe7f3fa67f8a8a729c092606b'
p1171
(lp1172
(S'def'
p1173
S'x'
p1174
(S'int-lit'
p1175
I2
tp1176
tp1177
a(g1173
g1174
(S'int-lit'
p1178
I3
tp1179
tp1180
a(S'print'
p1181
(S'var'
p1182
g1174
tp1183
tp1184
asS'eb9292faa10e3db36f4476ea9b0b3242fa891850'
p1185
(lp1186
(S'def'
p1187
S'f'
p1188
(S'lambda'
p1189
(lp1190
S'n'
p1191
a(lp1192
(S'if'
p1193
(S'<'
p1194
(S'var'
p1195
g1191
tp1196
(S'int-lit'
p1197
I10
tp1198
tp1199
(lp1200
(S'exp'
p1201
(S'int-lit'
p1202
I1
tp1203
tp1204
a(S'print'
p1205
(S'int-lit'
p1206
I2
tp1207
tp1208
a(lp1209
(g1187
S'x'
p1210
(S'int-lit'
p1211
I0
tp1212
tp1213
a(S'asgn'
p1214
g1210
(S'int-lit'
p1215
I3
tp1216
tp1217
atp1218
atp1219
tp1220
a(g1205
(S'call'
p1221
(g1195
g1188
tp1222
(lp1223
(S'int-lit'
p1224
I0
tp1225
atp1226
tp1227
a(g1205
(g1221
(g1195
g1188
tp1228
(lp1229
(S'int-lit'
p1230
I10
tp1231
atp1232
tp1233
asS'68b7e1c7d2fa35ed68322e3d319f8f6f3a192169'
p1234
(lp1235
(S'def'
p1236
S'test'
p1237
(S'lambda'
p1238
(lp1239
(lp1240
tp1241
tp1242
a(S'print'
p1243
(S'call'
p1244
(S'var'
p1245
g1237
tp1246
(lp1247
tp1248
tp1249
a(g1243
(S'int-lit'
p1250
I0
tp1251
tp1252
asS'0d53dc23e638aea787b0d5364632dad65f022c11'
p1253
(lp1254
(S'def'
p1255
S'x'
p1256
(S'int-lit'
p1257
I1
tp1258
tp1259
a(g1255
g1256
(S'int-lit'
p1260
I2
tp1261
tp1262
asS'293b38d1c306733ecb41ad869a65c04920b9488a'
p1263
(lp1264
(S'def'
p1265
S'fib'
p1266
(S'lambda'
p1267
(lp1268
S'n'
p1269
a(lp1270
(S'if'
p1271
(S'<='
p1272
(S'var'
p1273
g1269
tp1274
(S'int-lit'
p1275
I1
tp1276
tp1277
(lp1278
(S'exp'
p1279
(g1273
g1269
tp1280
tp1281
a(lp1282
(g1279
(S'*'
p1283
(g1273
g1269
tp1284
(S'call'
p1285
(g1273
g1266
tp1286
(lp1287
(S'-'
p1288
(g1273
g1269
tp1289
(S'int-lit'
p1290
I1
tp1291
tp1292
atp1293
tp1294
tp1295
atp1296
atp1297
tp1298
a(S'print'
p1299
(g1285
(g1273
g1266
tp1300
(lp1301
(S'int-lit'
p1302
I4
tp1303
atp1304
tp1305
asS'af8d078e3e09f51e68a73916efc1a81fff8c9e96'
p1306
(lp1307
(S'print'
p1308
(S'+'
p1309
(S'int-lit'
p1310
I1
tp1311
(S'int-lit'
p1312
I2
tp1313
tp1314
tp1315
a(g1308
(g1309
(S'string-lit'
p1316
S'1'
p1317
tp1318
(S'int-lit'
p1319
I2
tp1320
tp1321
tp1322
a(g1308
(g1309
(S'int-lit'
p1323
I1
tp1324
(S'string-lit'
p1325
S'2'
p1326
tp1327
tp1328
tp1329
a(g1308
(g1309
(S'string-lit'
p1330
g1317
tp1331
(S'string-lit'
p1332
g1326
tp1333
tp1334
tp1335
asS'631b715fb6ee50c6220ef652b91d45b11bbb7170'
p1336
(lp1337
(S'def'
p1338
S'x'
p1339
(S'lambda'
p1340
(lp1341
(lp1342
(S'exp'
p1343
(S'null'
p1344
tp1345
tp1346
atp1347
tp1348
a(S'print'
p1349
(S'call'
p1350
(S'var'
p1351
g1339
tp1352
(lp1353
tp1354
tp1355
asS'8b39d0772c81f0840d4783c54f648abf56682a5a'
p1356
(lp1357
(S'def'
p1358
S'iter'
p1359
(S'lambda'
p1360
(lp1361
S'y'
p1362
a(lp1363
(S'exp'
p1364
(S'yield'
p1365
(S'var'
p1366
g1362
tp1367
tp1368
tp1369
a(S'if'
p1370
(S'=='
p1371
(g1366
g1362
tp1372
(S'int-lit'
p1373
I0
tp1374
tp1375
(lp1376
(g1364
(S'int-lit'
p1377
I0
tp1378
tp1379
a(lp1380
(g1358
S'x'
p1381
(S'-'
p1382
(g1366
g1362
tp1383
(S'int-lit'
p1384
I1
tp1385
tp1386
tp1387
a(g1364
(S'call'
p1388
(g1366
g1359
tp1389
(lp1390
(g1366
g1381
tp1391
atp1392
tp1393
atp1394
atp1395
tp1396
a(g1358
S'getVal'
p1397
(g1360
(lp1398
g1362
a(lp1399
(g1364
(g1388
(g1366
g1359
tp1400
(lp1401
(g1366
g1362
tp1402
atp1403
tp1404
a(g1364
(S'null'
p1405
tp1406
tp1407
atp1408
tp1409
a(g1358
g1362
(S'int-lit'
p1410
I2
tp1411
tp1412
a(g1358
S'co'
p1413
(S'coroutine'
p1414
(g1366
g1397
tp1415
tp1416
tp1417
a(S'print'
p1418
(S'resume'
p1419
(g1366
g1413
tp1420
(g1366
g1362
tp1421
tp1422
tp1423
a(g1418
(g1419
(g1366
g1413
tp1424
(g1366
g1362
tp1425
tp1426
tp1427
a(g1418
(g1419
(g1366
g1413
tp1428
(g1366
g1362
tp1429
tp1430
tp1431
a(g1418
(g1419
(g1366
g1413
tp1432
(g1366
g1362
tp1433
tp1434
tp1435
asS'd8e3d204336a8f3fd0b9d589b55208669e161562'
p1436
(lp1437
(S'def'
p1438
S'x'
p1439
(S'int-lit'
p1440
I2
tp1441
tp1442
a(S'print'
p1443
(S'call'
p1444
(S'var'
p1445
g1439
tp1446
(lp1447
tp1448
tp1449
a(g1443
(S'int-lit'
p1450
I0
tp1451
tp1452
asS'd1a8bdf818a3dc4e946b12336a89112fb85c4410'
p1453
(lp1454
(S'print'
p1455
(S'int-lit'
p1456
I1
tp1457
tp1458
a(g1455
(S'var'
p1459
S'x'
p1460
tp1461
tp1462
a(g1455
(S'int-lit'
p1463
I2
tp1464
tp1465
asS'56eaf1010114ece227d6223cbd778f7b45e1b8bc'
p1466
(lp1467
(S'def'
p1468
S'fib'
p1469
(S'lambda'
p1470
(lp1471
S'n'
p1472
a(lp1473
(S'if'
p1474
(S'=='
p1475
(S'var'
p1476
g1472
tp1477
(S'int-lit'
p1478
I0
tp1479
tp1480
(lp1481
(S'exp'
p1482
(S'int-lit'
p1483
I0
tp1484
tp1485
a(lp1486
(g1474
(S'=='
p1487
(g1476
g1472
tp1488
(S'int-lit'
p1489
I1
tp1490
tp1491
(lp1492
(g1482
(S'int-lit'
p1493
I1
tp1494
tp1495
a(lp1496
(g1482
(S'+'
p1497
(S'call'
p1498
(g1476
g1469
tp1499
(lp1500
(S'-'
p1501
(g1476
g1472
tp1502
(S'int-lit'
p1503
I1
tp1504
tp1505
atp1506
(g1498
(g1476
g1469
tp1507
(lp1508
(g1501
(g1476
g1472
tp1509
(S'int-lit'
p1510
I2
tp1511
tp1512
atp1513
tp1514
tp1515
atp1516
atp1517
atp1518
tp1519
a(S'print'
p1520
(g1498
(g1476
g1469
tp1521
(lp1522
(S'int-lit'
p1523
I10
tp1524
atp1525
tp1526
asS'c8bd595336271b6057aa55e9f7de38a4383af6b1'
p1527
(lp1528
(S'def'
p1529
S'x'
p1530
(S'int-lit'
p1531
I1
tp1532
tp1533
a(g1529
S'f'
p1534
(S'lambda'
p1535
(lp1536
(lp1537
(g1529
g1530
(S'int-lit'
p1538
I10
tp1539
tp1540
a(g1529
S'f1'
p1541
(g1535
(lp1542
S'y'
p1543
a(lp1544
(g1529
g1530
(S'int-lit'
p1545
I100
tp1546
tp1547
a(S'asgn'
p1548
g1530
(S'+'
p1549
(S'var'
p1550
g1530
tp1551
(S'int-lit'
p1552
I1
tp1553
tp1554
tp1555
a(S'exp'
p1556
(g1550
g1530
tp1557
tp1558
atp1559
tp1560
a(g1556
(g1550
g1541
tp1561
tp1562
atp1563
tp1564
a(S'print'
p1565
(g1550
g1530
tp1566
tp1567
a(g1565
(S'call'
p1568
(g1568
(g1550
g1534
tp1569
(lp1570
tp1571
(lp1572
(S'int-lit'
p1573
I10
tp1574
atp1575
tp1576
asS'a0d438afa4b52d84d6b0de917b41c1373c3e0ef8'
p1577
(lp1578
(S'def'
p1579
S'f'
p1580
(S'lambda'
p1581
(lp1582
(lp1583
(g1579
g1580
(g1581
(lp1584
(lp1585
(g1579
g1580
(S'int-lit'
p1586
I1
tp1587
tp1588
a(S'exp'
p1589
(S'var'
p1590
g1580
tp1591
tp1592
atp1593
tp1594
a(g1589
(S'call'
p1595
(g1590
g1580
tp1596
(lp1597
tp1598
tp1599
atp1600
tp1601
a(S'print'
p1602
(g1595
(g1590
g1580
tp1603
(lp1604
tp1605
tp1606
asS'60ff545849da0d44512e8807b6303c02d58b2a47'
p1607
(lp1608
(S'def'
p1609
S'iter'
p1610
(S'lambda'
p1611
(lp1612
S'i'
p1613
a(lp1614
(g1609
S'n'
p1615
(S'int-lit'
p1616
I0
tp1617
tp1618
a(S'exp'
p1619
(g1611
(lp1620
(lp1621
(S'if'
p1622
(S'<'
p1623
(S'var'
p1624
g1615
tp1625
(g1624
g1613
tp1626
tp1627
(lp1628
(S'asgn'
p1629
g1615
(S'+'
p1630
(g1624
g1615
tp1631
(S'int-lit'
p1632
I1
tp1633
tp1634
tp1635
a(g1619
(g1624
g1615
tp1636
tp1637
a(lp1638
(g1619
(S'null'
p1639
tp1640
tp1641
atp1642
atp1643
tp1644
atp1645
tp1646
a(g1609
S'z'
p1647
(S'int-lit'
p1648
I0
tp1649
tp1650
a(S'for'
p1651
S'x'
p1652
(S'call'
p1653
(g1624
g1610
tp1654
(lp1655
(S'int-lit'
p1656
I10
tp1657
atp1658
(lp1659
(g1651
S'y'
p1660
(g1653
(g1624
g1610
tp1661
(lp1662
(S'int-lit'
p1663
I10
tp1664
atp1665
(lp1666
(g1629
g1647
(g1630
(g1624
g1647
tp1667
(S'int-lit'
p1668
I1
tp1669
tp1670
tp1671
atp1672
atp1673
a(S'print'
p1674
(g1624
g1647
tp1675
tp1676
asS'ec546e27d95cdf63e7916b8856be4ba5346527b8'
p1677
(lp1678
(S'print'
p1679
(S'+'
p1680
(S'int-lit'
p1681
I1
tp1682
(S'int-lit'
p1683
I2
tp1684
tp1685
tp1686
asS'55d68eb50ab55693753eac41de9e6142b236c678'
p1687
(lp1688
(S'def'
p1689
S't'
p1690
(S'dict-lit'
p1691
(lp1692
tp1693
tp1694
a(S'put'
p1695
(S'var'
p1696
g1690
tp1697
(S'int-lit'
p1698
I0
tp1699
(S'string-lit'
p1700
S'Hello'
p1701
tp1702
tp1703
a(g1695
(g1696
g1690
tp1704
(S'int-lit'
p1705
I1
tp1706
(S'string-lit'
p1707
S'world'
p1708
tp1709
tp1710
a(S'print'
p1711
(S'len'
p1712
(g1696
g1690
tp1713
tp1714
tp1715
a(g1711
(S'+'
p1716
(g1716
(S'get'
p1717
(g1696
g1690
tp1718
(S'int-lit'
p1719
I0
tp1720
tp1721
(S'string-lit'
p1722
S' '
p1723
tp1724
tp1725
(g1717
(g1696
g1690
tp1726
(S'int-lit'
p1727
I1
tp1728
tp1729
tp1730
tp1731
asS'f983a2f9f9edaf75a8ee1885f3783d57380ec826'
p1732
(lp1733
(S'def'
p1734
S'l1'
p1735
(S'dict-lit'
p1736
(lp1737
tp1738
tp1739
a(S'put'
p1740
(S'var'
p1741
g1735
tp1742
(S'int-lit'
p1743
I0
tp1744
(S'int-lit'
p1745
I0
tp1746
tp1747
a(g1740
(g1741
g1735
tp1748
(S'int-lit'
p1749
I1
tp1750
(S'int-lit'
p1751
I1
tp1752
tp1753
a(g1740
(g1741
g1735
tp1754
(S'int-lit'
p1755
I2
tp1756
(S'int-lit'
p1757
I2
tp1758
tp1759
a(S'for'
p1760
S'x'
p1761
(g1741
g1735
tp1762
(lp1763
(S'print'
p1764
(g1741
g1761
tp1765
tp1766
atp1767
asS'fb742ccecd5cf168c95750ff6f8371002e6101fb'
p1768
(lp1769
(S'def'
p1770
S'f'
p1771
(S'lambda'
p1772
(lp1773
S'z'
p1774
a(lp1775
(S'print'
p1776
(S'var'
p1777
g1774
tp1778
tp1779
a(S'exp'
p1780
(S'yield'
p1781
(g1777
g1774
tp1782
tp1783
tp1784
a(g1776
(g1777
g1774
tp1785
tp1786
atp1787
tp1788
a(g1770
g1774
(S'int-lit'
p1789
I3
tp1790
tp1791
a(g1770
S'co'
p1792
(S'coroutine'
p1793
(g1777
g1771
tp1794
tp1795
tp1796
a(g1780
(S'resume'
p1797
(g1777
g1792
tp1798
(S'int-lit'
p1799
I5
tp1800
tp1801
tp1802
a(g1776
(g1777
g1774
tp1803
tp1804
a(g1780
(g1797
(g1777
g1792
tp1805
(S'int-lit'
p1806
I4
tp1807
tp1808
tp1809
asS'f0dd7ff2984f1d8afdff1d8de2e9baa71580e499'
p1810
(lp1811
(S'def'
p1812
S'Ackermann'
p1813
(S'lambda'
p1814
(lp1815
S'x'
p1816
aS'y'
p1817
a(lp1818
(S'if'
p1819
(S'=='
p1820
(S'var'
p1821
g1816
tp1822
(S'int-lit'
p1823
I0
tp1824
tp1825
(lp1826
(S'exp'
p1827
(S'+'
p1828
(g1821
g1817
tp1829
(S'int-lit'
p1830
I1
tp1831
tp1832
tp1833
a(lp1834
(g1819
(S'=='
p1835
(g1821
g1817
tp1836
(S'int-lit'
p1837
I0
tp1838
tp1839
(lp1840
(g1827
(S'call'
p1841
(g1821
g1813
tp1842
(lp1843
(S'-'
p1844
(g1821
g1816
tp1845
(S'int-lit'
p1846
I1
tp1847
tp1848
a(S'int-lit'
p1849
I1
tp1850
atp1851
tp1852
a(lp1853
(g1827
(g1841
(g1821
g1813
tp1854
(lp1855
(g1844
(g1821
g1816
tp1856
(S'int-lit'
p1857
I1
tp1858
tp1859
a(g1841
(g1821
g1813
tp1860
(lp1861
(g1821
g1816
tp1862
a(g1844
(g1821
g1817
tp1863
(S'int-lit'
p1864
I1
tp1865
tp1866
atp1867
atp1868
tp1869
atp1870
atp1871
atp1872
tp1873
a(S'print'
p1874
(g1841
(g1821
g1813
tp1875
(lp1876
(S'int-lit'
p1877
I2
tp1878
a(S'int-lit'
p1879
I2
tp1880
atp1881
tp1882
asS'dd25f74100c8c71175b23fd68a5d382f9bc60230'
p1883
(lp1884
(S'if'
p1885
(S'int-lit'
p1886
I0
tp1887
(lp1888
(S'print'
p1889
(S'int-lit'
p1890
I0
tp1891
tp1892
a(lp1893
(g1889
(S'int-lit'
p1894
I1
tp1895
tp1896
atp1897
asS'3d42d8712a9ece509962c785127a89a20648bafa'
p1898
(lp1899
sS'8f03db8ccf07c1dc342c69df9cd755dcd89b5a45'
p1900
(lp1901
(S'def'
p1902
S'f'
p1903
(S'lambda'
p1904
(lp1905
S'z'
p1906
a(lp1907
(S'exp'
p1908
(S'yield'
p1909
(S'var'
p1910
g1906
tp1911
tp1912
tp1913
a(S'print'
p1914
(g1910
g1906
tp1915
tp1916
atp1917
tp1918
a(g1902
g1906
(S'int-lit'
p1919
I3
tp1920
tp1921
a(g1902
S'co'
p1922
(S'coroutine'
p1923
(g1910
g1903
tp1924
tp1925
tp1926
a(g1908
(S'resume'
p1927
(g1910
g1922
tp1928
(S'int-lit'
p1929
I5
tp1930
tp1931
tp1932
a(g1914
(g1910
g1906
tp1933
tp1934
a(g1908
(g1927
(g1910
g1922
tp1935
(S'int-lit'
p1936
I4
tp1937
tp1938
tp1939
asS'a991da5f47fa8b7f80bb0010aab8633266b5cca3'
p1940
(lp1941
(S'def'
p1942
S'x'
p1943
(S'lambda'
p1944
(lp1945
(lp1946
(S'print'
p1947
(S'null'
p1948
tp1949
tp1950
atp1951
tp1952
a(g1942
S'y'
p1953
(g1944
(lp1954
(lp1955
(g1947
(S'int-lit'
p1956
I1
tp1957
tp1958
atp1959
tp1960
a(g1942
S'i'
p1961
(S'int-lit'
p1962
I0
tp1963
tp1964
a(g1942
S'maxCount'
p1965
(S'int-lit'
p1966
I5
tp1967
tp1968
a(S'while'
p1969
(S'<'
p1970
(S'var'
p1971
g1961
tp1972
(g1971
g1965
tp1973
tp1974
(lp1975
(S'asgn'
p1976
g1961
(S'+'
p1977
(g1971
g1961
tp1978
(S'int-lit'
p1979
I1
tp1980
tp1981
tp1982
a(S'exp'
p1983
(S'call'
p1984
(g1971
g1943
tp1985
(lp1986
tp1987
tp1988
a(g1983
(g1984
(g1971
g1953
tp1989
(lp1990
tp1991
tp1992
atp1993
asS'c5050fe7c38913468e23b9d869be93d17a88e462'
p1994
(lp1995
(S'def'
p1996
S'x'
p1997
(S'int-lit'
p1998
I300
tp1999
tp2000
a(g1996
S'f1'
p2001
(S'lambda'
p2002
(lp2003
(lp2004
(g1996
g1997
(S'int-lit'
p2005
I100
tp2006
tp2007
a(S'exp'
p2008
(S'var'
p2009
g1997
tp2010
tp2011
atp2012
tp2013
a(g1996
S'f2'
p2014
(g2002
(lp2015
(lp2016
(g1996
g1997
(S'int-lit'
p2017
I200
tp2018
tp2019
a(g2008
(g2009
g1997
tp2020
tp2021
atp2022
tp2023
a(S'print'
p2024
(g2009
g1997
tp2025
tp2026
a(g2024
(S'call'
p2027
(g2009
g2001
tp2028
(lp2029
tp2030
tp2031
a(g2024
(g2027
(g2009
g2014
tp2032
(lp2033
tp2034
tp2035
asS'b62ff492c0fefb5fdf9438b21329f2c01d851247'
p2036
(lp2037
(S'def'
p2038
S'x'
p2039
(S'int-lit'
p2040
I100
tp2041
tp2042
a(g2038
S'f'
p2043
(S'lambda'
p2044
(lp2045
(lp2046
(S'asgn'
p2047
g2039
(S'-'
p2048
(S'var'
p2049
g2039
tp2050
(S'int-lit'
p2051
I1
tp2052
tp2053
tp2054
a(g2038
S'f1'
p2055
(g2044
(lp2056
(lp2057
(g2047
g2039
(g2048
(g2049
g2039
tp2058
(S'int-lit'
p2059
I2
tp2060
tp2061
tp2062
a(g2038
S'f2'
p2063
(g2044
(lp2064
(lp2065
(g2047
g2039
(g2048
(g2049
g2039
tp2066
(S'int-lit'
p2067
I3
tp2068
tp2069
tp2070
atp2071
tp2072
a(S'exp'
p2073
(S'call'
p2074
(g2049
g2063
tp2075
(lp2076
tp2077
tp2078
atp2079
tp2080
a(g2073
(g2074
(g2049
g2055
tp2081
(lp2082
tp2083
tp2084
atp2085
tp2086
a(g2073
(g2074
(g2049
g2043
tp2087
(lp2088
tp2089
tp2090
a(S'print'
p2091
(g2049
g2039
tp2092
tp2093
asS'0af9e16d8fc3ff15dae8113082597166d6dd3113'
p2094
(lp2095
(S'def'
p2096
S'f'
p2097
(S'lambda'
p2098
(lp2099
S'x'
p2100
a(lp2101
(g2096
S'y'
p2102
(S'yield'
p2103
(S'var'
p2104
g2100
tp2105
tp2106
tp2107
a(S'exp'
p2108
(S'-'
p2109
(g2104
g2100
tp2110
(g2104
g2102
tp2111
tp2112
tp2113
atp2114
tp2115
a(g2096
S'co'
p2116
(S'coroutine'
p2117
(g2104
g2097
tp2118
tp2119
tp2120
a(S'print'
p2121
(S'resume'
p2122
(g2104
g2116
tp2123
(S'int-lit'
p2124
I1
tp2125
tp2126
tp2127
a(g2121
(g2122
(g2104
g2116
tp2128
(S'int-lit'
p2129
I2
tp2130
tp2131
tp2132
a(g2121
(g2122
(g2104
g2116
tp2133
(S'int-lit'
p2134
I3
tp2135
tp2136
tp2137
as.